target datalayout = "e-m:e-p270:32:32-p271:32:32-p272:64:64-i64:64-i128:128-f80:128-n8:16:32:64-S128"
target triple = "x86_64-pc-linux-gnu"

%struct.static_metadata_t = type { i32, ptr, ptr, ptr }

; Function Attrs: inlinehint nounwind sspstrong uwtable
define internal ptr @safe_realloc_nofree_mul_2op_(ptr noundef %0, i64 noundef %1, i64 noundef %2) #11 {
  %4 = alloca ptr, align 8
  %5 = alloca ptr, align 8
  %6 = alloca i64, align 8
  %7 = alloca i64, align 8
  store ptr %0, ptr %5, align 8, !tbaa !48
  store i64 %1, ptr %6, align 8, !tbaa !9
  store i64 %2, ptr %7, align 8, !tbaa !9
  %8 = load i64, ptr %6, align 8, !tbaa !9
  %9 = icmp ne i64 %8, 0
  br i1 %9, label %10, label %13

10:                                               ; preds = %3
  %11 = load i64, ptr %7, align 8, !tbaa !9
  %12 = icmp ne i64 %11, 0
  br i1 %12, label %16, label %13

13:                                               ; preds = %10, %3
  %14 = load ptr, ptr %5, align 8, !tbaa !48
  %15 = call ptr @realloc(ptr noundef %14, i64 noundef 0) #17
  store ptr %15, ptr %4, align 8
  br label %28

16:                                               ; preds = %10
  %17 = load i64, ptr %6, align 8, !tbaa !9
  %18 = load i64, ptr %7, align 8, !tbaa !9
  %19 = udiv i64 -1, %18
  %20 = icmp ugt i64 %17, %19
  br i1 %20, label %21, label %22

21:                                               ; preds = %16
  store ptr null, ptr %4, align 8
  br label %28

22:                                               ; preds = %16
  %23 = load ptr, ptr %5, align 8, !tbaa !48
  %24 = load i64, ptr %6, align 8, !tbaa !9
  %25 = load i64, ptr %7, align 8, !tbaa !9
  %26 = mul i64 %24, %25
  %27 = call ptr @realloc(ptr noundef %23, i64 noundef %26) #17
  store ptr %27, ptr %4, align 8
  br label %28

28:                                               ; preds = %22, %21, %13
  %29 = load ptr, ptr %4, align 8
  ret ptr %29
}

; Function Attrs: inlinehint nounwind sspstrong uwtable
define internal ptr @safe_realloc_nofree_muladd2_(ptr noundef %0, i64 noundef %1, i64 noundef %2, i64 noundef %3) #11 {
  %5 = alloca ptr, align 8
  %6 = alloca ptr, align 8
  %7 = alloca i64, align 8
  %8 = alloca i64, align 8
  %9 = alloca i64, align 8
  store ptr %0, ptr %6, align 8, !tbaa !48
  store i64 %1, ptr %7, align 8, !tbaa !9
  store i64 %2, ptr %8, align 8, !tbaa !9
  store i64 %3, ptr %9, align 8, !tbaa !9
  %10 = load i64, ptr %7, align 8, !tbaa !9
  %11 = icmp ne i64 %10, 0
  br i1 %11, label %12, label %18

12:                                               ; preds = %4
  %13 = load i64, ptr %8, align 8, !tbaa !9
  %14 = icmp ne i64 %13, 0
  br i1 %14, label %21, label %15

15:                                               ; preds = %12
  %16 = load i64, ptr %9, align 8, !tbaa !9
  %17 = icmp ne i64 %16, 0
  br i1 %17, label %21, label %18

18:                                               ; preds = %15, %4
  %19 = load ptr, ptr %6, align 8, !tbaa !48
  %20 = call ptr @realloc(ptr noundef %19, i64 noundef 0) #17
  store ptr %20, ptr %5, align 8
  br label %34

21:                                               ; preds = %15, %12
  %22 = load i64, ptr %9, align 8, !tbaa !9
  %23 = load i64, ptr %8, align 8, !tbaa !9
  %24 = add i64 %23, %22
  store i64 %24, ptr %8, align 8, !tbaa !9
  %25 = load i64, ptr %8, align 8, !tbaa !9
  %26 = load i64, ptr %9, align 8, !tbaa !9
  %27 = icmp ult i64 %25, %26
  br i1 %27, label %28, label %29

28:                                               ; preds = %21
  store ptr null, ptr %5, align 8
  br label %34

29:                                               ; preds = %21
  %30 = load ptr, ptr %6, align 8, !tbaa !48
  %31 = load i64, ptr %7, align 8, !tbaa !9
  %32 = load i64, ptr %8, align 8, !tbaa !9
  %33 = call ptr @safe_realloc_nofree_mul_2op_(ptr noundef %30, i64 noundef %31, i64 noundef %32)
  store ptr %33, ptr %5, align 8
  br label %34

34:                                               ; preds = %29, %28, %18
  %35 = load ptr, ptr %5, align 8
  ret ptr %35
}

; Function Attrs: nounwind sspstrong uwtable
define internal i32 @static_metadata_append(ptr noundef %0, ptr noundef %1, i32 noundef %2) #0 {
  %4 = alloca i32, align 4
  %5 = alloca ptr, align 8
  %6 = alloca ptr, align 8
  %7 = alloca i32, align 4
  %8 = alloca ptr, align 8
  %9 = alloca i32, align 4
  store ptr %0, ptr %5, align 8, !tbaa !48
  store ptr %1, ptr %6, align 8, !tbaa !89
  store i32 %2, ptr %7, align 4, !tbaa !13
  call void @llvm.lifetime.start.p0(i64 8, ptr %8) #14
  %10 = load ptr, ptr %5, align 8, !tbaa !48
  %11 = getelementptr inbounds nuw %struct.static_metadata_t, ptr %10, i32 0, i32 2
  %12 = load ptr, ptr %11, align 8, !tbaa !116
  %13 = load ptr, ptr %5, align 8, !tbaa !48
  %14 = getelementptr inbounds nuw %struct.static_metadata_t, ptr %13, i32 0, i32 0
  %15 = load i32, ptr %14, align 8, !tbaa !117
  %16 = zext i32 %15 to i64
  %17 = call ptr @safe_realloc_nofree_muladd2_(ptr noundef %12, i64 noundef 8, i64 noundef %16, i64 noundef 1)
  store ptr %17, ptr %8, align 8, !tbaa !48
  %18 = icmp eq ptr null, %17
  br i1 %18, label %19, label %20

19:                                               ; preds = %3
  store i32 0, ptr %4, align 4
  store i32 1, ptr %9, align 4
  br label %60

20:                                               ; preds = %3
  %21 = load ptr, ptr %8, align 8, !tbaa !48
  %22 = load ptr, ptr %5, align 8, !tbaa !48
  %23 = getelementptr inbounds nuw %struct.static_metadata_t, ptr %22, i32 0, i32 2
  store ptr %21, ptr %23, align 8, !tbaa !116
  %24 = load ptr, ptr %5, align 8, !tbaa !48
  %25 = getelementptr inbounds nuw %struct.static_metadata_t, ptr %24, i32 0, i32 1
  %26 = load ptr, ptr %25, align 8, !tbaa !188
  %27 = load ptr, ptr %5, align 8, !tbaa !48
  %28 = getelementptr inbounds nuw %struct.static_metadata_t, ptr %27, i32 0, i32 0
  %29 = load i32, ptr %28, align 8, !tbaa !117
  %30 = zext i32 %29 to i64
  %31 = call ptr @safe_realloc_nofree_muladd2_(ptr noundef %26, i64 noundef 4, i64 noundef %30, i64 noundef 1)
  store ptr %31, ptr %8, align 8, !tbaa !48
  %32 = icmp eq ptr null, %31
  br i1 %32, label %33, label %34

33:                                               ; preds = %20
  store i32 0, ptr %4, align 4
  store i32 1, ptr %9, align 4
  br label %60

34:                                               ; preds = %20
  %35 = load ptr, ptr %8, align 8, !tbaa !48
  %36 = load ptr, ptr %5, align 8, !tbaa !48
  %37 = getelementptr inbounds nuw %struct.static_metadata_t, ptr %36, i32 0, i32 1
  store ptr %35, ptr %37, align 8, !tbaa !188
  %38 = load ptr, ptr %6, align 8, !tbaa !89
  %39 = load ptr, ptr %5, align 8, !tbaa !48
  %40 = getelementptr inbounds nuw %struct.static_metadata_t, ptr %39, i32 0, i32 2
  %41 = load ptr, ptr %40, align 8, !tbaa !116
  %42 = load ptr, ptr %5, align 8, !tbaa !48
  %43 = getelementptr inbounds nuw %struct.static_metadata_t, ptr %42, i32 0, i32 0
  %44 = load i32, ptr %43, align 8, !tbaa !117
  %45 = zext i32 %44 to i64
  %46 = getelementptr inbounds nuw ptr, ptr %41, i64 %45
  store ptr %38, ptr %46, align 8, !tbaa !89
  %47 = load i32, ptr %7, align 4, !tbaa !13
  %48 = load ptr, ptr %5, align 8, !tbaa !48
  %49 = getelementptr inbounds nuw %struct.static_metadata_t, ptr %48, i32 0, i32 1
  %50 = load ptr, ptr %49, align 8, !tbaa !188
  %51 = load ptr, ptr %5, align 8, !tbaa !48
  %52 = getelementptr inbounds nuw %struct.static_metadata_t, ptr %51, i32 0, i32 0
  %53 = load i32, ptr %52, align 8, !tbaa !117
  %54 = zext i32 %53 to i64
  %55 = getelementptr inbounds nuw i32, ptr %50, i64 %54
  store i32 %47, ptr %55, align 4, !tbaa !13
  %56 = load ptr, ptr %5, align 8, !tbaa !48
  %57 = getelementptr inbounds nuw %struct.static_metadata_t, ptr %56, i32 0, i32 0
  %58 = load i32, ptr %57, align 8, !tbaa !117
  %59 = add i32 %58, 1
  store i32 %59, ptr %57, align 8, !tbaa !117
  store i32 1, ptr %4, align 4
  store i32 1, ptr %9, align 4
  br label %60

60:                                               ; preds = %34, %33, %19
  call void @llvm.lifetime.end.p0(i64 8, ptr %8) #14
  %61 = load i32, ptr %4, align 4
  ret i32 %61
}