; Function Attrs: mustprogress nounwind sspstrong willreturn uwtable
define internal fastcc range(i32 0, 2) i32 @static_metadata_append(ptr noundef nonnull captures(none) %0, ptr noundef %1, i32 noundef range(i32 0, 2) %2) unnamed_addr #12 {
  %4 = getelementptr inbounds nuw i8, ptr %0, i64 16
  %5 = load ptr, ptr %4, align 8, !tbaa !107
  %6 = load i32, ptr %0, align 8, !tbaa !84
  %7 = zext i32 %6 to i64
  %8 = shl nuw nsw i64 %7, 3
  %9 = add nuw nsw i64 %8, 8
  %10 = tail call noalias noundef ptr @realloc(ptr noundef %5, i64 noundef %9) #22
  %11 = icmp eq ptr %10, null
  br i1 %11, label %28, label %12

12:                                               ; preds = %3
  store ptr %10, ptr %4, align 8, !tbaa !107
  %13 = getelementptr inbounds nuw i8, ptr %0, i64 8
  %14 = load ptr, ptr %13, align 8, !tbaa !106
  %15 = load i32, ptr %0, align 8, !tbaa !84
  %16 = zext i32 %15 to i64
  %17 = shl nuw nsw i64 %16, 2
  %18 = add nuw nsw i64 %17, 4
  %19 = tail call noalias noundef ptr @realloc(ptr noundef %14, i64 noundef %18) #22
  %20 = icmp eq ptr %19, null
  br i1 %20, label %28, label %21

21:                                               ; preds = %12
  store ptr %19, ptr %13, align 8, !tbaa !106
  %22 = load ptr, ptr %4, align 8, !tbaa !107
  %23 = load i32, ptr %0, align 8, !tbaa !84
  %24 = zext i32 %23 to i64
  %25 = getelementptr inbounds nuw ptr, ptr %22, i64 %24
  store ptr %1, ptr %25, align 8, !tbaa !91
  %26 = getelementptr inbounds nuw i32, ptr %19, i64 %24
  store i32 %2, ptr %26, align 4, !tbaa !52
  %27 = add i32 %23, 1
  store i32 %27, ptr %0, align 8, !tbaa !84
  br label %28

28:                                               ; preds = %12, %3, %21
  %.0 = phi i32 [ 1, %21 ], [ 0, %3 ], [ 0, %12 ]
  ret i32 %.0
}